; Function Attrs: mustprogress uwtable
define hidden void @_ZNK3ade15ExecutionEngine12CallbackList4callERKNS0_8PassDescERKNS_6passes11PassContextE(ptr noundef nonnull readonly align 8 captures(none) dereferenceable(24) %0, ptr noundef nonnull align 8 dereferenceable(64) %1, ptr noundef nonnull align 8 dereferenceable(8) %2) local_unnamed_addr #0 align 2 {
  %4 = load ptr, ptr %0, align 8, !tbaa !133
  %5 = getelementptr inbounds nuw i8, ptr %0, i64 8
  %6 = load ptr, ptr %5, align 8, !tbaa !133
  %.not9 = icmp eq ptr %4, %6
  br i1 %.not9, label %._crit_edge, label %.lr.ph

._crit_edge:                                      ; preds = %_ZNKSt8functionIFvRKN3ade15ExecutionEngine8PassDescERKNS0_6passes11PassContextEEEclES4_S8_.exit, %3
  ret void

.lr.ph:                                           ; preds = %3, %_ZNKSt8functionIFvRKN3ade15ExecutionEngine8PassDescERKNS0_6passes11PassContextEEEclES4_S8_.exit
  %.sroa.06.010 = phi ptr [ %12, %_ZNKSt8functionIFvRKN3ade15ExecutionEngine8PassDescERKNS0_6passes11PassContextEEEclES4_S8_.exit ], [ %4, %3 ]
  %7 = getelementptr inbounds nuw i8, ptr %.sroa.06.010, i64 16
  %8 = load ptr, ptr %7, align 8, !tbaa !48
  %.not.i.i = icmp eq ptr %8, null
  br i1 %.not.i.i, label %9, label %_ZNKSt8functionIFvRKN3ade15ExecutionEngine8PassDescERKNS0_6passes11PassContextEEEclES4_S8_.exit

9:                                                ; preds = %.lr.ph
  tail call void @_ZSt25__throw_bad_function_callv() #28
  unreachable

_ZNKSt8functionIFvRKN3ade15ExecutionEngine8PassDescERKNS0_6passes11PassContextEEEclES4_S8_.exit: ; preds = %.lr.ph
  %10 = getelementptr inbounds nuw i8, ptr %.sroa.06.010, i64 24
  %11 = load ptr, ptr %10, align 8, !tbaa !69
  tail call void %11(ptr noundef nonnull align 8 dereferenceable(32) %.sroa.06.010, ptr noundef nonnull align 8 dereferenceable(64) %1, ptr noundef nonnull align 8 dereferenceable(8) %2)
  %12 = getelementptr inbounds nuw i8, ptr %.sroa.06.010, i64 32
  %.not = icmp eq ptr %12, %6
  br i1 %.not, label %._crit_edge, label %.lr.ph
}